target datalayout = "e-m:e-p270:32:32-p271:32:32-p272:64:64-i64:64-i128:128-f80:128-n8:16:32:64-S128"
target triple = "x86_64-pc-linux-gnu"

%struct.ALSA_Device = type { ptr, ptr, i8, ptr }

@ALSA_snd_ctl_card_info_sizeof = internal global ptr null, align 8
@ALSA_snd_card_next = internal global ptr null, align 8
@ALSA_snd_ctl_open = internal global ptr null, align 8
@ALSA_snd_ctl_close = internal global ptr null, align 8
@ALSA_snd_ctl_card_info = internal global ptr null, align 8
@ALSA_snd_ctl_pcm_next_device = internal global ptr null, align 8
@ALSA_snd_ctl_card_info_clear = internal global ptr null, align 8
@ALSA_device_prefix = internal global ptr null, align 8
@hotplug_devices = internal global ptr null, align 8
@.str.72 = private unnamed_addr constant [5 x i8] c"%s%d\00", align 1
@.str.73 = private unnamed_addr constant [30 x i8] c"ALSA: hotplug ctl_name = '%s'\00", align 1

; Function Attrs: nounwind uwtable
define internal void @ALSA_HotplugIteration(ptr noundef %0, ptr noundef %1) #0 {
  %3 = alloca ptr, align 8
  %4 = alloca ptr, align 8
  %5 = alloca i8, align 1
  %6 = alloca ptr, align 8
  %7 = alloca i32, align 4
  %8 = alloca ptr, align 8
  %9 = alloca ptr, align 8
  %10 = alloca ptr, align 8
  %11 = alloca i32, align 4
  %12 = alloca i32, align 4
  %13 = alloca [64 x i8], align 16
  %14 = alloca i32, align 4
  %15 = alloca ptr, align 8
  %16 = alloca ptr, align 8
  %17 = alloca ptr, align 8
  store ptr %0, ptr %3, align 8
  store ptr %1, ptr %4, align 8
  %18 = load ptr, ptr %3, align 8
  %19 = icmp ne ptr %18, null
  br i1 %19, label %20, label %22

20:                                               ; preds = %2
  %21 = load ptr, ptr %3, align 8
  store i8 1, ptr %21, align 1
  br label %22

22:                                               ; preds = %20, %2
  %23 = load ptr, ptr %4, align 8
  %24 = icmp ne ptr %23, null
  br i1 %24, label %25, label %27

25:                                               ; preds = %22
  %26 = load ptr, ptr %4, align 8
  store i8 1, ptr %26, align 1
  br label %27

27:                                               ; preds = %25, %22
  call void @llvm.lifetime.start.p0(i64 1, ptr %5) #7
  call void @llvm.lifetime.start.p0(i64 8, ptr %6) #7
  %28 = load ptr, ptr @ALSA_snd_ctl_card_info_sizeof, align 8
  %29 = call i64 %28()
  %30 = mul i64 1, %29
  %31 = icmp ult i64 %30, 128
  %32 = zext i1 %31 to i8
  store i8 %32, ptr %5, align 1
  %33 = load i8, ptr %5, align 1, !range !3, !noundef !4
  %34 = trunc i8 %33 to i1
  br i1 %34, label %35, label %40

35:                                               ; preds = %27
  %36 = load ptr, ptr @ALSA_snd_ctl_card_info_sizeof, align 8
  %37 = call i64 %36()
  %38 = mul i64 1, %37
  %39 = alloca i8, i64 %38, align 16
  br label %45

40:                                               ; preds = %27
  %41 = load ptr, ptr @ALSA_snd_ctl_card_info_sizeof, align 8
  %42 = call i64 %41()
  %43 = mul i64 1, %42
  %44 = call noalias ptr @SDL_malloc_REAL(i64 noundef %43)
  br label %45

45:                                               ; preds = %40, %35
  %46 = phi ptr [ %39, %35 ], [ %44, %40 ]
  store ptr %46, ptr %6, align 8
  %47 = load ptr, ptr %6, align 8
  %48 = icmp ne ptr %47, null
  br i1 %48, label %50, label %49

49:                                               ; preds = %45
  store i32 1, ptr %7, align 4
  br label %206

50:                                               ; preds = %45
  %51 = load ptr, ptr %6, align 8
  %52 = load ptr, ptr @ALSA_snd_ctl_card_info_sizeof, align 8
  %53 = call i64 %52()
  call void @llvm.memset.p0.i64(ptr align 1 %51, i8 0, i64 %53, i1 false)
  call void @llvm.lifetime.start.p0(i64 8, ptr %8) #7
  store ptr null, ptr %8, align 8
  call void @llvm.lifetime.start.p0(i64 8, ptr %9) #7
  %54 = load ptr, ptr @hotplug_devices, align 8
  store ptr %54, ptr %9, align 8
  call void @llvm.lifetime.start.p0(i64 8, ptr %10) #7
  store ptr null, ptr %10, align 8
  call void @llvm.lifetime.start.p0(i64 4, ptr %11) #7
  store i32 -1, ptr %11, align 4
  br label %55

55:                                               ; preds = %128, %126, %50
  br label %56

56:                                               ; preds = %55
  call void @llvm.lifetime.start.p0(i64 4, ptr %12) #7
  %57 = load ptr, ptr @ALSA_snd_card_next, align 8
  %58 = call i32 %57(ptr noundef %11)
  store i32 %58, ptr %12, align 4
  %59 = load i32, ptr %12, align 4
  %60 = icmp slt i32 %59, 0
  br i1 %60, label %61, label %62

61:                                               ; preds = %56
  store i32 4, ptr %7, align 4
  br label %126

62:                                               ; preds = %56
  %63 = load i32, ptr %11, align 4
  %64 = icmp eq i32 %63, -1
  br i1 %64, label %65, label %66

65:                                               ; preds = %62
  store i32 3, ptr %7, align 4
  br label %126

66:                                               ; preds = %62
  br label %67

67:                                               ; preds = %66
  call void @llvm.lifetime.start.p0(i64 64, ptr %13) #7
  %68 = getelementptr inbounds [64 x i8], ptr %13, i64 0, i64 0
  %69 = load ptr, ptr @ALSA_device_prefix, align 8
  %70 = load i32, ptr %11, align 4
  %71 = call i32 (ptr, i64, ptr, ...) @SDL_snprintf_REAL(ptr noundef %68, i64 noundef 64, ptr noundef @.str.72, ptr noundef %69, i32 noundef %70)
  %72 = getelementptr inbounds [64 x i8], ptr %13, i64 0, i64 0
  call void (i32, ptr, ...) @SDL_LogDebug_REAL(i32 noundef 4, ptr noundef @.str.73, ptr noundef %72)
  %73 = load ptr, ptr @ALSA_snd_ctl_open, align 8
  %74 = getelementptr inbounds [64 x i8], ptr %13, i64 0, i64 0
  %75 = call i32 %73(ptr noundef %8, ptr noundef %74, i32 noundef 0)
  store i32 %75, ptr %12, align 4
  %76 = load i32, ptr %12, align 4
  %77 = icmp slt i32 %76, 0
  br i1 %77, label %78, label %79

78:                                               ; preds = %67
  store i32 2, ptr %7, align 4
  br label %125

79:                                               ; preds = %67
  %80 = load ptr, ptr @ALSA_snd_ctl_card_info, align 8
  %81 = load ptr, ptr %8, align 8
  %82 = load ptr, ptr %6, align 8
  %83 = call i32 %80(ptr noundef %81, ptr noundef %82)
  store i32 %83, ptr %12, align 4
  %84 = load i32, ptr %12, align 4
  %85 = icmp slt i32 %84, 0
  br i1 %85, label %86, label %87

86:                                               ; preds = %79
  store i32 4, ptr %7, align 4
  br label %125

87:                                               ; preds = %79
  call void @llvm.lifetime.start.p0(i64 4, ptr %14) #7
  store i32 -1, ptr %14, align 4
  br label %88

88:                                               ; preds = %117, %87
  br label %89

89:                                               ; preds = %88
  %90 = load ptr, ptr @ALSA_snd_ctl_pcm_next_device, align 8
  %91 = load ptr, ptr %8, align 8
  %92 = call i32 %90(ptr noundef %91, ptr noundef %14)
  store i32 %92, ptr %12, align 4
  %93 = load i32, ptr %12, align 4
  %94 = icmp slt i32 %93, 0
  br i1 %94, label %95, label %96

95:                                               ; preds = %89
  store i32 4, ptr %7, align 4
  br label %124

96:                                               ; preds = %89
  %97 = load i32, ptr %14, align 4
  %98 = icmp eq i32 %97, -1
  br i1 %98, label %99, label %100

99:                                               ; preds = %96
  br label %118

100:                                              ; preds = %96
  br label %101

101:                                              ; preds = %100
  %102 = load ptr, ptr %8, align 8
  %103 = load ptr, ptr %6, align 8
  %104 = load i32, ptr %14, align 4
  %105 = call i32 @hotplug_device_process(ptr noundef %102, ptr noundef %103, i32 noundef %104, i32 noundef 0, ptr noundef %9, ptr noundef %10)
  store i32 %105, ptr %12, align 4
  %106 = load i32, ptr %12, align 4
  %107 = icmp slt i32 %106, 0
  br i1 %107, label %108, label %109

108:                                              ; preds = %101
  store i32 4, ptr %7, align 4
  br label %124

109:                                              ; preds = %101
  %110 = load ptr, ptr %8, align 8
  %111 = load ptr, ptr %6, align 8
  %112 = load i32, ptr %14, align 4
  %113 = call i32 @hotplug_device_process(ptr noundef %110, ptr noundef %111, i32 noundef %112, i32 noundef 1, ptr noundef %9, ptr noundef %10)
  store i32 %113, ptr %12, align 4
  %114 = load i32, ptr %12, align 4
  %115 = icmp slt i32 %114, 0
  br i1 %115, label %116, label %117

116:                                              ; preds = %109
  store i32 4, ptr %7, align 4
  br label %124

117:                                              ; preds = %109
  br label %88

118:                                              ; preds = %99
  %119 = load ptr, ptr @ALSA_snd_ctl_close, align 8
  %120 = load ptr, ptr %8, align 8
  %121 = call i32 %119(ptr noundef %120)
  %122 = load ptr, ptr @ALSA_snd_ctl_card_info_clear, align 8
  %123 = load ptr, ptr %6, align 8
  call void %122(ptr noundef %123)
  store i32 0, ptr %7, align 4
  br label %124

124:                                              ; preds = %116, %108, %95, %118
  call void @llvm.lifetime.end.p0(i64 4, ptr %14) #7
  br label %125

125:                                              ; preds = %86, %124, %78
  call void @llvm.lifetime.end.p0(i64 64, ptr %13) #7
  br label %126

126:                                              ; preds = %61, %125, %65
  call void @llvm.lifetime.end.p0(i64 4, ptr %12) #7
  %127 = load i32, ptr %7, align 4
  switch i32 %127, label %205 [
    i32 0, label %128
    i32 3, label %129
    i32 2, label %55
    i32 4, label %155
  ]

128:                                              ; preds = %126
  br label %55

129:                                              ; preds = %126
  br label %130

130:                                              ; preds = %133, %129
  %131 = load ptr, ptr %9, align 8
  %132 = icmp ne ptr %131, null
  br i1 %132, label %133, label %147

133:                                              ; preds = %130
  %134 = load ptr, ptr %9, align 8
  %135 = call ptr @SDL_FindPhysicalAudioDeviceByHandle(ptr noundef %134)
  call void @SDL_AudioDeviceDisconnected(ptr noundef %135)
  %136 = load ptr, ptr %9, align 8
  %137 = getelementptr inbounds nuw %struct.ALSA_Device, ptr %136, i32 0, i32 1
  %138 = load ptr, ptr %137, align 8
  call void @SDL_free_REAL(ptr noundef %138)
  %139 = load ptr, ptr %9, align 8
  %140 = getelementptr inbounds nuw %struct.ALSA_Device, ptr %139, i32 0, i32 0
  %141 = load ptr, ptr %140, align 8
  call void @SDL_free_REAL(ptr noundef %141)
  call void @llvm.lifetime.start.p0(i64 8, ptr %15) #7
  %142 = load ptr, ptr %9, align 8
  %143 = getelementptr inbounds nuw %struct.ALSA_Device, ptr %142, i32 0, i32 3
  %144 = load ptr, ptr %143, align 8
  store ptr %144, ptr %15, align 8
  %145 = load ptr, ptr %9, align 8
  call void @SDL_free_REAL(ptr noundef %145)
  %146 = load ptr, ptr %15, align 8
  store ptr %146, ptr %9, align 8
  call void @llvm.lifetime.end.p0(i64 8, ptr %15) #7
  br label %130, !llvm.loop !11

147:                                              ; preds = %130
  %148 = load ptr, ptr %10, align 8
  store ptr %148, ptr @hotplug_devices, align 8
  %149 = load i8, ptr %5, align 1, !range !3, !noundef !4
  %150 = trunc i8 %149 to i1
  br i1 %150, label %151, label %152

151:                                              ; preds = %147
  br label %154

152:                                              ; preds = %147
  %153 = load ptr, ptr %6, align 8
  call void @SDL_free_REAL(ptr noundef %153)
  br label %154

154:                                              ; preds = %152, %151
  store i32 1, ptr %7, align 4
  br label %205

155:                                              ; preds = %126
  %156 = load ptr, ptr %8, align 8
  %157 = icmp ne ptr %156, null
  br i1 %157, label %158, label %162

158:                                              ; preds = %155
  %159 = load ptr, ptr @ALSA_snd_ctl_close, align 8
  %160 = load ptr, ptr %8, align 8
  %161 = call i32 %159(ptr noundef %160)
  br label %162

162:                                              ; preds = %158, %155
  br label %163

163:                                              ; preds = %166, %162
  %164 = load ptr, ptr %9, align 8
  %165 = icmp ne ptr %164, null
  br i1 %165, label %166, label %180

166:                                              ; preds = %163
  %167 = load ptr, ptr %9, align 8
  %168 = call ptr @SDL_FindPhysicalAudioDeviceByHandle(ptr noundef %167)
  call void @SDL_AudioDeviceDisconnected(ptr noundef %168)
  %169 = load ptr, ptr %9, align 8
  %170 = getelementptr inbounds nuw %struct.ALSA_Device, ptr %169, i32 0, i32 1
  %171 = load ptr, ptr %170, align 8
  call void @SDL_free_REAL(ptr noundef %171)
  %172 = load ptr, ptr %9, align 8
  %173 = getelementptr inbounds nuw %struct.ALSA_Device, ptr %172, i32 0, i32 0
  %174 = load ptr, ptr %173, align 8
  call void @SDL_free_REAL(ptr noundef %174)
  call void @llvm.lifetime.start.p0(i64 8, ptr %16) #7
  %175 = load ptr, ptr %9, align 8
  %176 = getelementptr inbounds nuw %struct.ALSA_Device, ptr %175, i32 0, i32 3
  %177 = load ptr, ptr %176, align 8
  store ptr %177, ptr %16, align 8
  %178 = load ptr, ptr %9, align 8
  call void @SDL_free_REAL(ptr noundef %178)
  %179 = load ptr, ptr %16, align 8
  store ptr %179, ptr %9, align 8
  call void @llvm.lifetime.end.p0(i64 8, ptr %16) #7
  br label %163, !llvm.loop !12

180:                                              ; preds = %163
  br label %181

181:                                              ; preds = %184, %180
  %182 = load ptr, ptr %10, align 8
  %183 = icmp ne ptr %182, null
  br i1 %183, label %184, label %198

184:                                              ; preds = %181
  %185 = load ptr, ptr %10, align 8
  %186 = call ptr @SDL_FindPhysicalAudioDeviceByHandle(ptr noundef %185)
  call void @SDL_AudioDeviceDisconnected(ptr noundef %186)
  %187 = load ptr, ptr %10, align 8
  %188 = getelementptr inbounds nuw %struct.ALSA_Device, ptr %187, i32 0, i32 1
  %189 = load ptr, ptr %188, align 8
  call void @SDL_free_REAL(ptr noundef %189)
  %190 = load ptr, ptr %10, align 8
  %191 = getelementptr inbounds nuw %struct.ALSA_Device, ptr %190, i32 0, i32 0
  %192 = load ptr, ptr %191, align 8
  call void @SDL_free_REAL(ptr noundef %192)
  call void @llvm.lifetime.start.p0(i64 8, ptr %17) #7
  %193 = load ptr, ptr %10, align 8
  %194 = getelementptr inbounds nuw %struct.ALSA_Device, ptr %193, i32 0, i32 3
  %195 = load ptr, ptr %194, align 8
  store ptr %195, ptr %17, align 8
  %196 = load ptr, ptr %10, align 8
  call void @SDL_free_REAL(ptr noundef %196)
  %197 = load ptr, ptr %17, align 8
  store ptr %197, ptr %10, align 8
  call void @llvm.lifetime.end.p0(i64 8, ptr %17) #7
  br label %181, !llvm.loop !13

198:                                              ; preds = %181
  store ptr null, ptr @hotplug_devices, align 8
  %199 = load i8, ptr %5, align 1, !range !3, !noundef !4
  %200 = trunc i8 %199 to i1
  br i1 %200, label %201, label %202

201:                                              ; preds = %198
  br label %204

202:                                              ; preds = %198
  %203 = load ptr, ptr %6, align 8
  call void @SDL_free_REAL(ptr noundef %203)
  br label %204

204:                                              ; preds = %202, %201
  store i32 0, ptr %7, align 4
  br label %205

205:                                              ; preds = %204, %154, %126
  call void @llvm.lifetime.end.p0(i64 4, ptr %11) #7
  call void @llvm.lifetime.end.p0(i64 8, ptr %10) #7
  call void @llvm.lifetime.end.p0(i64 8, ptr %9) #7
  call void @llvm.lifetime.end.p0(i64 8, ptr %8) #7
  br label %206

206:                                              ; preds = %205, %49
  call void @llvm.lifetime.end.p0(i64 8, ptr %6) #7
  call void @llvm.lifetime.end.p0(i64 1, ptr %5) #7
  %207 = load i32, ptr %7, align 4
  switch i32 %207, label %209 [
    i32 0, label %208
    i32 1, label %208
  ]

208:                                              ; preds = %206, %206
  ret void

209:                                              ; preds = %206
  unreachable
}