; Function Attrs: nounwind uwtable
define internal fastcc void @ALSA_HotplugIteration(ptr noundef writeonly captures(address_is_null) %0, ptr noundef writeonly captures(address_is_null) %1) unnamed_addr #0 {
  %3 = alloca ptr, align 8
  %4 = alloca ptr, align 8
  %5 = alloca ptr, align 8
  %6 = alloca i32, align 4
  %7 = alloca [64 x i8], align 16
  %8 = alloca i32, align 4
  %.not = icmp eq ptr %0, null
  br i1 %.not, label %10, label %9

9:                                                ; preds = %2
  store i8 1, ptr %0, align 1
  br label %10

10:                                               ; preds = %9, %2
  %.not32 = icmp eq ptr %1, null
  br i1 %.not32, label %12, label %11

11:                                               ; preds = %10
  store i8 1, ptr %1, align 1
  br label %12

12:                                               ; preds = %11, %10
  %13 = load ptr, ptr @ALSA_snd_ctl_card_info_sizeof, align 8
  %14 = tail call i64 %13() #8
  %15 = icmp ult i64 %14, 128
  %16 = load ptr, ptr @ALSA_snd_ctl_card_info_sizeof, align 8
  %17 = tail call i64 %16() #8
  br i1 %15, label %.thread, label %19

.thread:                                          ; preds = %12
  %18 = alloca i8, i64 %17, align 16
  br label %21

19:                                               ; preds = %12
  %20 = tail call noalias ptr @SDL_malloc_REAL(i64 noundef %17) #8
  %.not33 = icmp eq ptr %20, null
  br i1 %.not33, label %95, label %21

21:                                               ; preds = %.thread, %19
  %22 = phi ptr [ %18, %.thread ], [ %20, %19 ]
  %23 = load ptr, ptr @ALSA_snd_ctl_card_info_sizeof, align 8
  %24 = tail call i64 %23() #8
  call void @llvm.memset.p0.i64(ptr nonnull align 1 %22, i8 0, i64 %24, i1 false)
  call void @llvm.lifetime.start.p0(i64 8, ptr nonnull %3) #8
  store ptr null, ptr %3, align 8
  call void @llvm.lifetime.start.p0(i64 8, ptr nonnull %4) #8
  %25 = load ptr, ptr @hotplug_devices, align 8
  store ptr %25, ptr %4, align 8
  call void @llvm.lifetime.start.p0(i64 8, ptr nonnull %5) #8
  store ptr null, ptr %5, align 8
  call void @llvm.lifetime.start.p0(i64 4, ptr nonnull %6) #8
  store i32 -1, ptr %6, align 4
  %26 = load ptr, ptr @ALSA_snd_card_next, align 8
  %27 = call i32 %26(ptr noundef nonnull %6) #8
  %28 = icmp slt i32 %27, 0
  br i1 %28, label %.thread39, label %.lr.ph

.lr.ph:                                           ; preds = %21, %.backedge
  %29 = load i32, ptr %6, align 4
  %30 = icmp eq i32 %29, -1
  br i1 %30, label %thread-pre-split, label %31

31:                                               ; preds = %.lr.ph
  call void @llvm.lifetime.start.p0(i64 64, ptr nonnull %7) #8
  %32 = load ptr, ptr @ALSA_device_prefix, align 8
  %33 = call i32 (ptr, i64, ptr, ...) @SDL_snprintf_REAL(ptr noundef nonnull %7, i64 noundef 64, ptr noundef nonnull @.str.72, ptr noundef %32, i32 noundef %29) #8
  call void (i32, ptr, ...) @SDL_LogDebug_REAL(i32 noundef 4, ptr noundef nonnull @.str.73, ptr noundef nonnull %7) #8
  %34 = load ptr, ptr @ALSA_snd_ctl_open, align 8
  %35 = call i32 %34(ptr noundef nonnull %3, ptr noundef nonnull %7, i32 noundef 0) #8
  %36 = icmp slt i32 %35, 0
  br i1 %36, label %.backedge, label %37

37:                                               ; preds = %31
  %38 = load ptr, ptr @ALSA_snd_ctl_card_info, align 8
  %39 = load ptr, ptr %3, align 8
  %40 = call i32 %38(ptr noundef %39, ptr noundef nonnull %22) #8
  %41 = icmp slt i32 %40, 0
  br i1 %41, label %.thread39.sink.split, label %42

42:                                               ; preds = %37
  call void @llvm.lifetime.start.p0(i64 4, ptr nonnull %8) #8
  store i32 -1, ptr %8, align 4
  br label %43

43:                                               ; preds = %55, %42
  %44 = load ptr, ptr @ALSA_snd_ctl_pcm_next_device, align 8
  %45 = load ptr, ptr %3, align 8
  %46 = call i32 %44(ptr noundef %45, ptr noundef nonnull %8) #8
  %47 = icmp slt i32 %46, 0
  br i1 %47, label %.thread69, label %48

48:                                               ; preds = %43
  %49 = load i32, ptr %8, align 4
  %50 = icmp eq i32 %49, -1
  br i1 %50, label %60, label %51

51:                                               ; preds = %48
  %52 = load ptr, ptr %3, align 8
  %53 = call fastcc i32 @hotplug_device_process(ptr noundef %52, ptr noundef %22, i32 noundef %49, i32 noundef 0, ptr noundef %4, ptr noundef %5)
  %54 = icmp slt i32 %53, 0
  br i1 %54, label %.thread69, label %55

55:                                               ; preds = %51
  %56 = load ptr, ptr %3, align 8
  %57 = load i32, ptr %8, align 4
  %58 = call fastcc i32 @hotplug_device_process(ptr noundef %56, ptr noundef %22, i32 noundef %57, i32 noundef 1, ptr noundef %4, ptr noundef %5)
  %59 = icmp slt i32 %58, 0
  br i1 %59, label %.thread69, label %43

.thread69:                                        ; preds = %43, %51, %55
  call void @llvm.lifetime.end.p0(i64 4, ptr nonnull %8) #8
  br label %.thread39.sink.split

60:                                               ; preds = %48
  %61 = load ptr, ptr @ALSA_snd_ctl_close, align 8
  %62 = load ptr, ptr %3, align 8
  %63 = call i32 %61(ptr noundef %62) #8
  %64 = load ptr, ptr @ALSA_snd_ctl_card_info_clear, align 8
  call void %64(ptr noundef nonnull %22) #8
  call void @llvm.lifetime.end.p0(i64 4, ptr nonnull %8) #8
  br label %.backedge

.backedge:                                        ; preds = %31, %60
  call void @llvm.lifetime.end.p0(i64 64, ptr nonnull %7) #8
  %65 = load ptr, ptr @ALSA_snd_card_next, align 8
  %66 = call i32 %65(ptr noundef nonnull %6) #8
  %67 = icmp slt i32 %66, 0
  br i1 %67, label %.thread39, label %.lr.ph

thread-pre-split:                                 ; preds = %.lr.ph
  %.pr = load ptr, ptr %4, align 8
  %.not3750 = icmp eq ptr %.pr, null
  br i1 %.not3750, label %._crit_edge, label %.lr.ph51

.lr.ph51:                                         ; preds = %thread-pre-split, %.lr.ph51
  %68 = phi ptr [ %74, %.lr.ph51 ], [ %.pr, %thread-pre-split ]
  %69 = call ptr @SDL_FindPhysicalAudioDeviceByHandle(ptr noundef nonnull %68) #8
  call void @SDL_AudioDeviceDisconnected(ptr noundef %69) #8
  %70 = getelementptr inbounds nuw i8, ptr %68, i64 8
  %71 = load ptr, ptr %70, align 8
  call void @SDL_free_REAL(ptr noundef %71) #8
  %72 = load ptr, ptr %68, align 8
  call void @SDL_free_REAL(ptr noundef %72) #8
  %73 = getelementptr inbounds nuw i8, ptr %68, i64 24
  %74 = load ptr, ptr %73, align 8
  call void @SDL_free_REAL(ptr noundef nonnull %68) #8
  %.not37 = icmp eq ptr %74, null
  br i1 %.not37, label %._crit_edge, label %.lr.ph51, !llvm.loop !11

._crit_edge:                                      ; preds = %.lr.ph51, %thread-pre-split
  %75 = load ptr, ptr %5, align 8
  store ptr %75, ptr @hotplug_devices, align 8
  br i1 %15, label %.loopexit48, label %.loopexit48.sink.split

.thread39.sink.split:                             ; preds = %37, %.thread69
  call void @llvm.lifetime.end.p0(i64 64, ptr nonnull %7) #8
  br label %.thread39

.thread39:                                        ; preds = %.backedge, %.thread39.sink.split, %21
  %76 = load ptr, ptr %3, align 8
  %.not34 = icmp eq ptr %76, null
  br i1 %.not34, label %80, label %77

77:                                               ; preds = %.thread39
  %78 = load ptr, ptr @ALSA_snd_ctl_close, align 8
  %79 = call i32 %78(ptr noundef nonnull %76) #8
  br label %80

80:                                               ; preds = %77, %.thread39
  %.pr41 = load ptr, ptr %4, align 8
  %.not3554 = icmp eq ptr %.pr41, null
  br i1 %.not3554, label %thread-pre-split42, label %.lr.ph56

.lr.ph56:                                         ; preds = %80, %.lr.ph56
  %81 = phi ptr [ %87, %.lr.ph56 ], [ %.pr41, %80 ]
  %82 = call ptr @SDL_FindPhysicalAudioDeviceByHandle(ptr noundef nonnull %81) #8
  call void @SDL_AudioDeviceDisconnected(ptr noundef %82) #8
  %83 = getelementptr inbounds nuw i8, ptr %81, i64 8
  %84 = load ptr, ptr %83, align 8
  call void @SDL_free_REAL(ptr noundef %84) #8
  %85 = load ptr, ptr %81, align 8
  call void @SDL_free_REAL(ptr noundef %85) #8
  %86 = getelementptr inbounds nuw i8, ptr %81, i64 24
  %87 = load ptr, ptr %86, align 8
  call void @SDL_free_REAL(ptr noundef nonnull %81) #8
  %.not35 = icmp eq ptr %87, null
  br i1 %.not35, label %thread-pre-split42, label %.lr.ph56, !llvm.loop !12

thread-pre-split42:                               ; preds = %.lr.ph56, %80
  %.pr43 = load ptr, ptr %5, align 8
  %.not3660 = icmp eq ptr %.pr43, null
  br i1 %.not3660, label %._crit_edge62, label %.lr.ph61

.lr.ph61:                                         ; preds = %thread-pre-split42, %.lr.ph61
  %88 = phi ptr [ %94, %.lr.ph61 ], [ %.pr43, %thread-pre-split42 ]
  %89 = call ptr @SDL_FindPhysicalAudioDeviceByHandle(ptr noundef nonnull %88) #8
  call void @SDL_AudioDeviceDisconnected(ptr noundef %89) #8
  %90 = getelementptr inbounds nuw i8, ptr %88, i64 8
  %91 = load ptr, ptr %90, align 8
  call void @SDL_free_REAL(ptr noundef %91) #8
  %92 = load ptr, ptr %88, align 8
  call void @SDL_free_REAL(ptr noundef %92) #8
  %93 = getelementptr inbounds nuw i8, ptr %88, i64 24
  %94 = load ptr, ptr %93, align 8
  call void @SDL_free_REAL(ptr noundef nonnull %88) #8
  %.not36 = icmp eq ptr %94, null
  br i1 %.not36, label %._crit_edge62, label %.lr.ph61, !llvm.loop !13

._crit_edge62:                                    ; preds = %.lr.ph61, %thread-pre-split42
  store ptr null, ptr @hotplug_devices, align 8
  br i1 %15, label %.loopexit48, label %.loopexit48.sink.split

.loopexit48.sink.split:                           ; preds = %._crit_edge62, %._crit_edge
  call void @SDL_free_REAL(ptr noundef nonnull %22) #8
  br label %.loopexit48

.loopexit48:                                      ; preds = %.loopexit48.sink.split, %._crit_edge62, %._crit_edge
  call void @llvm.lifetime.end.p0(i64 4, ptr nonnull %6) #8
  call void @llvm.lifetime.end.p0(i64 8, ptr nonnull %5) #8
  call void @llvm.lifetime.end.p0(i64 8, ptr nonnull %4) #8
  call void @llvm.lifetime.end.p0(i64 8, ptr nonnull %3) #8
  br label %95

95:                                               ; preds = %19, %.loopexit48
  ret void
}